
./test_func:     file format elf64-x86-64

SYMBOL TABLE:
0000000000000000 l    df *ABS*	0000000000000000              Scrt1.o
000000000000038c l     O .note.ABI-tag	0000000000000020              __abi_tag
0000000000000000 l    df *ABS*	0000000000000000              crtstuff.c
0000000000001070 l     F .text	0000000000000000              deregister_tm_clones
00000000000010a0 l     F .text	0000000000000000              register_tm_clones
00000000000010e0 l     F .text	0000000000000000              __do_global_dtors_aux
0000000000004010 l     O .bss	0000000000000001              completed.0
0000000000003df8 l     O .fini_array	0000000000000000              __do_global_dtors_aux_fini_array_entry
0000000000001120 l     F .text	0000000000000000              frame_dummy
0000000000003df0 l     O .init_array	0000000000000000              __frame_dummy_init_array_entry
0000000000000000 l    df *ABS*	0000000000000000              test_func.c
0000000000000000 l    df *ABS*	0000000000000000              crtstuff.c
00000000000020e8 l     O .eh_frame	0000000000000000              __FRAME_END__
0000000000000000 l    df *ABS*	0000000000000000              
0000000000003e00 l     O .dynamic	0000000000000000              _DYNAMIC
0000000000002004 l       .eh_frame_hdr	0000000000000000              __GNU_EH_FRAME_HDR
0000000000003fc0 l     O .got	0000000000000000              _GLOBAL_OFFSET_TABLE_
0000000000000000       F *UND*	0000000000000000              __libc_start_main@GLIBC_2.34
0000000000000000  w      *UND*	0000000000000000              _ITM_deregisterTMCloneTable
0000000000004000  w      .data	0000000000000000              data_start
0000000000004010 g       .data	0000000000000000              _edata
0000000000001174 g     F .fini	0000000000000000              .hidden _fini
0000000000004000 g       .data	0000000000000000              __data_start
0000000000000000  w      *UND*	0000000000000000              __gmon_start__
0000000000004008 g     O .data	0000000000000000              .hidden __dso_handle
0000000000002000 g     O .rodata	0000000000000004              _IO_stdin_used
0000000000001142 g     F .text	0000000000000032              func
0000000000004018 g       .bss	0000000000000000              _end
0000000000001040 g     F .text	0000000000000026              _start
0000000000004014 g     O .bss	0000000000000004              i
0000000000004010 g       .bss	0000000000000000              __bss_start
0000000000001129 g     F .text	0000000000000019              main
0000000000004010 g     O .data	0000000000000000              .hidden __TMC_END__
0000000000000000  w      *UND*	0000000000000000              _ITM_registerTMCloneTable
0000000000000000  w    F *UND*	0000000000000000              __cxa_finalize@GLIBC_2.2.5
0000000000001000 g     F .init	0000000000000000              .hidden _init


Contents of section .interp:
 0318 2f6c6962 36342f6c 642d6c69 6e75782d  /lib64/ld-linux-
 0328 7838362d 36342e73 6f2e3200           x86-64.so.2.    
Contents of section .note.gnu.property:
 0338 04000000 20000000 05000000 474e5500  .... .......GNU.
 0348 020000c0 04000000 03000000 00000000  ................
 0358 028000c0 04000000 01000000 00000000  ................
Contents of section .note.gnu.build-id:
 0368 04000000 14000000 03000000 474e5500  ............GNU.
 0378 5c81d8b0 9b263f52 43f14724 357e35b7  \....&?RC.G$5~5.
 0388 57e818b7                             W...            
Contents of section .note.ABI-tag:
 038c 04000000 10000000 01000000 474e5500  ............GNU.
 039c 00000000 03000000 02000000 00000000  ................
Contents of section .gnu.hash:
 03b0 02000000 05000000 01000000 06000000  ................
 03c0 00008100 00000000 05000000 00000000  ................
 03d0 d165ce6d                             .e.m            
Contents of section .dynsym:
 03d8 00000000 00000000 00000000 00000000  ................
 03e8 00000000 00000000 10000000 12000000  ................
 03f8 00000000 00000000 00000000 00000000  ................
 0408 43000000 20000000 00000000 00000000  C... ...........
 0418 00000000 00000000 5f000000 20000000  ........_... ...
 0428 00000000 00000000 00000000 00000000  ................
 0438 6e000000 20000000 00000000 00000000  n... ...........
 0448 00000000 00000000 01000000 22000000  ............"...
 0458 00000000 00000000 00000000 00000000  ................
Contents of section .dynstr:
 0468 005f5f63 78615f66 696e616c 697a6500  .__cxa_finalize.
 0478 5f5f6c69 62635f73 74617274 5f6d6169  __libc_start_mai
 0488 6e006c69 62632e73 6f2e3600 474c4942  n.libc.so.6.GLIB
 0498 435f322e 322e3500 474c4942 435f322e  C_2.2.5.GLIBC_2.
 04a8 3334005f 49544d5f 64657265 67697374  34._ITM_deregist
 04b8 6572544d 436c6f6e 65546162 6c65005f  erTMCloneTable._
 04c8 5f676d6f 6e5f7374 6172745f 5f005f49  _gmon_start__._I
 04d8 544d5f72 65676973 74657254 4d436c6f  TM_registerTMClo
 04e8 6e655461 626c6500                    neTable.        
Contents of section .gnu.version:
 04f0 00000200 01000100 01000300           ............    
Contents of section .gnu.version_r:
 0500 01000200 22000000 10000000 00000000  ...."...........
 0510 751a6909 00000300 2c000000 10000000  u.i.....,.......
 0520 b4919606 00000200 38000000 00000000  ........8.......
Contents of section .rela.dyn:
 0530 f03d0000 00000000 08000000 00000000  .=..............
 0540 20110000 00000000 f83d0000 00000000   ........=......
 0550 08000000 00000000 e0100000 00000000  ................
 0560 08400000 00000000 08000000 00000000  .@..............
 0570 08400000 00000000 d83f0000 00000000  .@.......?......
 0580 06000000 01000000 00000000 00000000  ................
 0590 e03f0000 00000000 06000000 02000000  .?..............
 05a0 00000000 00000000 e83f0000 00000000  .........?......
 05b0 06000000 03000000 00000000 00000000  ................
 05c0 f03f0000 00000000 06000000 04000000  .?..............
 05d0 00000000 00000000 f83f0000 00000000  .........?......
 05e0 06000000 05000000 00000000 00000000  ................
Contents of section .init:
 1000 f30f1efa 4883ec08 488b05d9 2f000048  ....H...H.../..H
 1010 85c07402 ffd04883 c408c3             ..t...H....     
Contents of section .plt:
 1020 ff35a22f 0000f2ff 25a32f00 000f1f00  .5./....%./.....
Contents of section .plt.got:
 1030 f30f1efa f2ff25bd 2f00000f 1f440000  ......%./....D..
Contents of section .text:
 1040 f30f1efa 31ed4989 d15e4889 e24883e4  ....1.I..^H..H..
 1050 f0505445 31c031c9 488d3dca 000000ff  .PTE1.1.H.=.....
 1060 15732f00 00f4662e 0f1f8400 00000000  .s/...f.........
 1070 488d3d99 2f000048 8d05922f 00004839  H.=./..H.../..H9
 1080 f8741548 8b05562f 00004885 c07409ff  .t.H..V/..H..t..
 1090 e00f1f80 00000000 c30f1f80 00000000  ................
 10a0 488d3d69 2f000048 8d35622f 00004829  H.=i/..H.5b/..H)
 10b0 fe4889f0 48c1ee3f 48c1f803 4801c648  .H..H..?H...H..H
 10c0 d1fe7414 488b0525 2f000048 85c07408  ..t.H..%/..H..t.
 10d0 ffe0660f 1f440000 c30f1f80 00000000  ..f..D..........
 10e0 f30f1efa 803d252f 00000075 2b554883  .....=%/...u+UH.
 10f0 3d022f00 00004889 e5740c48 8b3d062f  =./...H..t.H.=./
 1100 0000e829 ffffffe8 64ffffff c605fd2e  ...)....d.......
 1110 0000015d c30f1f00 c30f1f80 00000000  ...]............
 1120 f30f1efa e977ffff fff30f1e fa554889  .....w.......UH.
 1130 e5b80000 0000e807 000000b8 00000000  ................
 1140 5dc3f30f 1efa5548 89e5c745 fc000000  ].....UH...E....
 1150 008b15bd 2e00008b 45fc01d0 8905b22e  ........E.......
 1160 00008b05 ac2e0000 83c00189 05a32e00  ................
 1170 00905dc3                             ..].            
Contents of section .fini:
 1174 f30f1efa 4883ec08 4883c408 c3        ....H...H....   
Contents of section .rodata:
 2000 01000200                             ....            
Contents of section .eh_frame_hdr:
 2004 011b033b 30000000 05000000 1cf0ffff  ...;0...........
 2014 64000000 2cf0ffff 8c000000 3cf0ffff  d...,.......<...
 2024 4c000000 25f1ffff a4000000 3ef1ffff  L...%.......>...
 2034 c4000000                             ....            
Contents of section .eh_frame:
 2038 14000000 00000000 017a5200 01781001  .........zR..x..
 2048 1b0c0708 90010000 14000000 1c000000  ................
 2058 e8efffff 26000000 00440710 00000000  ....&....D......
 2068 24000000 34000000 b0efffff 10000000  $...4...........
 2078 000e1046 0e184a0f 0b770880 003f1a3a  ...F..J..w...?.:
 2088 2a332422 00000000 14000000 5c000000  *3$"........\...
 2098 98efffff 10000000 00000000 00000000  ................
 20a8 1c000000 74000000 79f0ffff 19000000  ....t...y.......
 20b8 00450e10 8602430d 06500c07 08000000  .E....C..P......
 20c8 1c000000 94000000 72f0ffff 32000000  ........r...2...
 20d8 00450e10 8602430d 06690c07 08000000  .E....C..i......
 20e8 00000000                             ....            
Contents of section .init_array:
 3df0 20110000 00000000                     .......        
Contents of section .fini_array:
 3df8 e0100000 00000000                    ........        
Contents of section .dynamic:
 3e00 01000000 00000000 22000000 00000000  ........".......
 3e10 0c000000 00000000 00100000 00000000  ................
 3e20 0d000000 00000000 74110000 00000000  ........t.......
 3e30 19000000 00000000 f03d0000 00000000  .........=......
 3e40 1b000000 00000000 08000000 00000000  ................
 3e50 1a000000 00000000 f83d0000 00000000  .........=......
 3e60 1c000000 00000000 08000000 00000000  ................
 3e70 f5feff6f 00000000 b0030000 00000000  ...o............
 3e80 05000000 00000000 68040000 00000000  ........h.......
 3e90 06000000 00000000 d8030000 00000000  ................
 3ea0 0a000000 00000000 88000000 00000000  ................
 3eb0 0b000000 00000000 18000000 00000000  ................
 3ec0 15000000 00000000 00000000 00000000  ................
 3ed0 03000000 00000000 c03f0000 00000000  .........?......
 3ee0 07000000 00000000 30050000 00000000  ........0.......
 3ef0 08000000 00000000 c0000000 00000000  ................
 3f00 09000000 00000000 18000000 00000000  ................
 3f10 1e000000 00000000 08000000 00000000  ................
 3f20 fbffff6f 00000000 01000008 00000000  ...o............
 3f30 feffff6f 00000000 00050000 00000000  ...o............
 3f40 ffffff6f 00000000 01000000 00000000  ...o............
 3f50 f0ffff6f 00000000 f0040000 00000000  ...o............
 3f60 f9ffff6f 00000000 03000000 00000000  ...o............
 3f70 00000000 00000000 00000000 00000000  ................
 3f80 00000000 00000000 00000000 00000000  ................
 3f90 00000000 00000000 00000000 00000000  ................
 3fa0 00000000 00000000 00000000 00000000  ................
 3fb0 00000000 00000000 00000000 00000000  ................
Contents of section .got:
 3fc0 003e0000 00000000 00000000 00000000  .>..............
 3fd0 00000000 00000000 00000000 00000000  ................
 3fe0 00000000 00000000 00000000 00000000  ................
 3ff0 00000000 00000000 00000000 00000000  ................
Contents of section .data:
 4000 00000000 00000000 08400000 00000000  .........@......
Contents of section .comment:
 0000 4743433a 20285562 756e7475 2031312e  GCC: (Ubuntu 11.
 0010 342e302d 31756275 6e747531 7e32322e  4.0-1ubuntu1~22.
 0020 30342920 31312e34 2e3000             04) 11.4.0.     
Contents of section .debug_aranges:
 0000 2c000000 02000000 00000800 00000000  ,...............
 0010 29110000 00000000 4b000000 00000000  ).......K.......
 0020 00000000 00000000 00000000 00000000  ................
Contents of section .debug_info:
 0000 90000000 05000108 00000000 01000000  ................
 0010 001d0000 00000c00 00002911 00000000  ..........).....
 0020 00004b00 00000000 00000000 00000269  ..K............i
 0030 00010105 42000000 09031440 00000000  ....B......@....
 0040 00000304 05696e74 00048e00 00000107  .....int........
 0050 06421100 00000000 00320000 00000000  .B.......2......
 0060 00019c75 00000005 6a000108 06420000  ...u....j....B..
 0070 0002916c 00069300 00000103 05420000  ...l.........B..
 0080 00291100 00000000 00190000 00000000  .)..............
 0090 00019c00                             ....            
Contents of section .debug_abbrev:
 0000 01110125 0e130b03 1f1b1f11 01120710  ...%............
 0010 17000002 34000308 3a0b3b0b 390b4913  ....4...:.;.9.I.
 0020 3f190218 00000324 000b0b3e 0b030800  ?......$...>....
 0030 00042e01 3f19030e 3a0b3b0b 390b1101  ....?...:.;.9...
 0040 12074018 7a190113 00000534 0003083a  ..@.z......4...:
 0050 0b3b0b39 0b491302 18000006 2e003f19  .;.9.I........?.
 0060 030e3a0b 3b0b390b 49131101 12074018  ..:.;.9.I.....@.
 0070 7c190000 00                          |....           
Contents of section .debug_line:
 0000 5c000000 05000800 2a000000 010101fb  \.......*.......
 0010 0e0d0001 01010100 00000100 00010101  ................
 0020 1f010c00 00000201 1f020f02 00000000  ................
 0030 00000000 0000050b 00090229 11000000  ...........)....
 0040 00000014 05028305 099f0501 59050c2f  ............Y../
 0050 05068305 03750813 0501e502 03000101  .....u..........
Contents of section .debug_str:
 0000 474e5520 43313720 31312e34 2e30202d  GNU C17 11.4.0 -
 0010 6d74756e 653d6765 6e657269 63202d6d  mtune=generic -m
 0020 61726368 3d783836 2d363420 2d67202d  arch=x86-64 -g -
 0030 66617379 6e636872 6f6e6f75 732d756e  fasynchronous-un
 0040 77696e64 2d746162 6c657320 2d667374  wind-tables -fst
 0050 61636b2d 70726f74 6563746f 722d7374  ack-protector-st
 0060 726f6e67 202d6673 7461636b 2d636c61  rong -fstack-cla
 0070 73682d70 726f7465 6374696f 6e202d66  sh-protection -f
 0080 63662d70 726f7465 6374696f 6e006675  cf-protection.fu
 0090 6e63006d 61696e00                    nc.main.        
Contents of section .debug_line_str:
 0000 74657374 5f66756e 632e6300 2f726f6f  test_func.c./roo
 0010 742f776f 726b7368 6f702f73 68617265  t/workshop/share
 0020 5f66696c 65732f63 6c616e67 2f746d70  _files/clang/tmp
 0030 00                                   .               

Disassembly of section .init:

0000000000001000 <_init>:
    1000:	f3 0f 1e fa          	endbr64 
    1004:	48 83 ec 08          	sub    rsp,0x8
    1008:	48 8b 05 d9 2f 00 00 	mov    rax,QWORD PTR [rip+0x2fd9]        # 3fe8 <__gmon_start__@Base>
    100f:	48 85 c0             	test   rax,rax
    1012:	74 02                	je     1016 <_init+0x16>
    1014:	ff d0                	call   rax
    1016:	48 83 c4 08          	add    rsp,0x8
    101a:	c3                   	ret    

Disassembly of section .plt:

0000000000001020 <.plt>:
    1020:	ff 35 a2 2f 00 00    	push   QWORD PTR [rip+0x2fa2]        # 3fc8 <_GLOBAL_OFFSET_TABLE_+0x8>
    1026:	f2 ff 25 a3 2f 00 00 	bnd jmp QWORD PTR [rip+0x2fa3]        # 3fd0 <_GLOBAL_OFFSET_TABLE_+0x10>
    102d:	0f 1f 00             	nop    DWORD PTR [rax]

Disassembly of section .plt.got:

0000000000001030 <__cxa_finalize@plt>:
    1030:	f3 0f 1e fa          	endbr64 
    1034:	f2 ff 25 bd 2f 00 00 	bnd jmp QWORD PTR [rip+0x2fbd]        # 3ff8 <__cxa_finalize@GLIBC_2.2.5>
    103b:	0f 1f 44 00 00       	nop    DWORD PTR [rax+rax*1+0x0]

Disassembly of section .text:

0000000000001040 <_start>:
    1040:	f3 0f 1e fa          	endbr64 
    1044:	31 ed                	xor    ebp,ebp
    1046:	49 89 d1             	mov    r9,rdx
    1049:	5e                   	pop    rsi
    104a:	48 89 e2             	mov    rdx,rsp
    104d:	48 83 e4 f0          	and    rsp,0xfffffffffffffff0
    1051:	50                   	push   rax
    1052:	54                   	push   rsp
    1053:	45 31 c0             	xor    r8d,r8d
    1056:	31 c9                	xor    ecx,ecx
    1058:	48 8d 3d ca 00 00 00 	lea    rdi,[rip+0xca]        # 1129 <main>
    105f:	ff 15 73 2f 00 00    	call   QWORD PTR [rip+0x2f73]        # 3fd8 <__libc_start_main@GLIBC_2.34>
    1065:	f4                   	hlt    
    1066:	66 2e 0f 1f 84 00 00 	cs nop WORD PTR [rax+rax*1+0x0]
    106d:	00 00 00 

0000000000001070 <deregister_tm_clones>:
    1070:	48 8d 3d 99 2f 00 00 	lea    rdi,[rip+0x2f99]        # 4010 <__TMC_END__>
    1077:	48 8d 05 92 2f 00 00 	lea    rax,[rip+0x2f92]        # 4010 <__TMC_END__>
    107e:	48 39 f8             	cmp    rax,rdi
    1081:	74 15                	je     1098 <deregister_tm_clones+0x28>
    1083:	48 8b 05 56 2f 00 00 	mov    rax,QWORD PTR [rip+0x2f56]        # 3fe0 <_ITM_deregisterTMCloneTable@Base>
    108a:	48 85 c0             	test   rax,rax
    108d:	74 09                	je     1098 <deregister_tm_clones+0x28>
    108f:	ff e0                	jmp    rax
    1091:	0f 1f 80 00 00 00 00 	nop    DWORD PTR [rax+0x0]
    1098:	c3                   	ret    
    1099:	0f 1f 80 00 00 00 00 	nop    DWORD PTR [rax+0x0]

00000000000010a0 <register_tm_clones>:
    10a0:	48 8d 3d 69 2f 00 00 	lea    rdi,[rip+0x2f69]        # 4010 <__TMC_END__>
    10a7:	48 8d 35 62 2f 00 00 	lea    rsi,[rip+0x2f62]        # 4010 <__TMC_END__>
    10ae:	48 29 fe             	sub    rsi,rdi
    10b1:	48 89 f0             	mov    rax,rsi
    10b4:	48 c1 ee 3f          	shr    rsi,0x3f
    10b8:	48 c1 f8 03          	sar    rax,0x3
    10bc:	48 01 c6             	add    rsi,rax
    10bf:	48 d1 fe             	sar    rsi,1
    10c2:	74 14                	je     10d8 <register_tm_clones+0x38>
    10c4:	48 8b 05 25 2f 00 00 	mov    rax,QWORD PTR [rip+0x2f25]        # 3ff0 <_ITM_registerTMCloneTable@Base>
    10cb:	48 85 c0             	test   rax,rax
    10ce:	74 08                	je     10d8 <register_tm_clones+0x38>
    10d0:	ff e0                	jmp    rax
    10d2:	66 0f 1f 44 00 00    	nop    WORD PTR [rax+rax*1+0x0]
    10d8:	c3                   	ret    
    10d9:	0f 1f 80 00 00 00 00 	nop    DWORD PTR [rax+0x0]

00000000000010e0 <__do_global_dtors_aux>:
    10e0:	f3 0f 1e fa          	endbr64 
    10e4:	80 3d 25 2f 00 00 00 	cmp    BYTE PTR [rip+0x2f25],0x0        # 4010 <__TMC_END__>
    10eb:	75 2b                	jne    1118 <__do_global_dtors_aux+0x38>
    10ed:	55                   	push   rbp
    10ee:	48 83 3d 02 2f 00 00 	cmp    QWORD PTR [rip+0x2f02],0x0        # 3ff8 <__cxa_finalize@GLIBC_2.2.5>
    10f5:	00 
    10f6:	48 89 e5             	mov    rbp,rsp
    10f9:	74 0c                	je     1107 <__do_global_dtors_aux+0x27>
    10fb:	48 8b 3d 06 2f 00 00 	mov    rdi,QWORD PTR [rip+0x2f06]        # 4008 <__dso_handle>
    1102:	e8 29 ff ff ff       	call   1030 <__cxa_finalize@plt>
    1107:	e8 64 ff ff ff       	call   1070 <deregister_tm_clones>
    110c:	c6 05 fd 2e 00 00 01 	mov    BYTE PTR [rip+0x2efd],0x1        # 4010 <__TMC_END__>
    1113:	5d                   	pop    rbp
    1114:	c3                   	ret    
    1115:	0f 1f 00             	nop    DWORD PTR [rax]
    1118:	c3                   	ret    
    1119:	0f 1f 80 00 00 00 00 	nop    DWORD PTR [rax+0x0]

0000000000001120 <frame_dummy>:
    1120:	f3 0f 1e fa          	endbr64 
    1124:	e9 77 ff ff ff       	jmp    10a0 <register_tm_clones>

0000000000001129 <main>:
    1129:	f3 0f 1e fa          	endbr64 
    112d:	55                   	push   rbp
    112e:	48 89 e5             	mov    rbp,rsp
    1131:	b8 00 00 00 00       	mov    eax,0x0
    1136:	e8 07 00 00 00       	call   1142 <func>
    113b:	b8 00 00 00 00       	mov    eax,0x0
    1140:	5d                   	pop    rbp
    1141:	c3                   	ret    

0000000000001142 <func>:
    1142:	f3 0f 1e fa          	endbr64 
    1146:	55                   	push   rbp
    1147:	48 89 e5             	mov    rbp,rsp
    114a:	c7 45 fc 00 00 00 00 	mov    DWORD PTR [rbp-0x4],0x0
    1151:	8b 15 bd 2e 00 00    	mov    edx,DWORD PTR [rip+0x2ebd]        # 4014 <i>
    1157:	8b 45 fc             	mov    eax,DWORD PTR [rbp-0x4]
    115a:	01 d0                	add    eax,edx
    115c:	89 05 b2 2e 00 00    	mov    DWORD PTR [rip+0x2eb2],eax        # 4014 <i>
    1162:	8b 05 ac 2e 00 00    	mov    eax,DWORD PTR [rip+0x2eac]        # 4014 <i>
    1168:	83 c0 01             	add    eax,0x1
    116b:	89 05 a3 2e 00 00    	mov    DWORD PTR [rip+0x2ea3],eax        # 4014 <i>
    1171:	90                   	nop
    1172:	5d                   	pop    rbp
    1173:	c3                   	ret    

Disassembly of section .fini:

0000000000001174 <_fini>:
    1174:	f3 0f 1e fa          	endbr64 
    1178:	48 83 ec 08          	sub    rsp,0x8
    117c:	48 83 c4 08          	add    rsp,0x8
    1180:	c3                   	ret    
